(dp1
S'output'
p2
S"<type 'exceptions.NameError'> name 'content' is not defined"
p3
sS'layer'
p4
S'C:\\www-sgd114\\applications\\sgd\\views\\layout/home_dang_tin-tim-mua.html'
p5
sS'code'
p6
S'response.write(\'<!--[if HTML5]><![endif]-->\\n<!DOCTYPE html>\\n<!-- paulirish.com/2008/conditional-stylesheets-vs-css-hacks-answer-neither/ -->\\n<!--[if lt IE 7]><html class="ie ie6 ie-lte9 ie-lte8 ie-lte7 no-js" lang="\', escape=False)\nresponse.write(T.accepted_language or \'en\')\nresponse.write(\'"> <![endif]-->\\n<!--[if IE 7]><html class="ie ie7 ie-lte9 ie-lte8 ie-lte7 no-js" lang="\', escape=False)\nresponse.write(T.accepted_language or \'en\')\nresponse.write(\'"> <![endif]-->\\n<!--[if IE 8]><html class="ie ie8 ie-lte9 ie-lte8 no-js" lang="\', escape=False)\nresponse.write(T.accepted_language or \'en\')\nresponse.write(\'"> <![endif]-->\\n<!--[if IE 9]><html class="ie9 ie-lte9 no-js" lang="\', escape=False)\nresponse.write(T.accepted_language or \'en\')\nresponse.write(\'"> <![endif]-->\\n<!--[if (gt IE 9)|!(IE)]><!-->\\n<html class="no-js" lang="\', escape=False)\nresponse.write(T.accepted_language or \'en\')\nresponse.write(\'">\\n <!--<![endif]-->\\n <head>\\n \', escape=False)\nresponse.write(cms.metadc())\nresponse.write(\'\\n  <!--[if !HTML5]>\\n      <meta http-equiv="X-UA-Compatible" content="IE=edge\', escape=False)\nresponse.write(not request.is_local and \',chrome=1\' or \'\')\nresponse.write(\'">\\n  <![endif]-->\\n  <!-- www.phpied.com/conditional-comments-block-downloads/ -->\\n  <!-- Always force latest IE rendering engine\\n       (even in intranet) & Chrome Frame\\n       Remove this if you use the .htaccess -->\\n  <meta charset="utf-8"/>\\n  <!-- http://dev.w3.org/html5/markup/meta.name.html -->\\n  <meta content="\', escape=False)\nresponse.write(request.application)\nresponse.write(\'" name="application-name"/>\\n  <!-- Speaking of Google, don\\\'t forget to set your site up:\\n       http://google.com/webmasters -->\\n  <meta content="" name="google-site-verification"/>\\n  <!--  Mobile Viewport Fix\\n        j.mp/mobileviewport & davidbcalhoun.com/2010/viewport-metatag\\n        device-width: Occupy full width of the screen in its current orientation\\n        initial-scale = 1.0 retains dimensions instead of zooming out if page height > device height\\n        user-scalable = yes allows the user to zoom in -->\\n  <meta content="width=device-width, initial-scale=1.0" name="viewport"/>\\n  <link href="\', escape=False)\nresponse.write(URL(\'static\',\'images/favicon.ico\'))\nresponse.write(\'" rel="shortcut icon" type="image/x-icon">\\n   <link href="\', escape=False)\nresponse.write(URL(\'static\',\'images/favicon.png\'))\nresponse.write(\'" rel="apple-touch-icon">\\n    <!-- All JavaScript at the bottom, except for Modernizr which enables\\n       HTML5 elements & feature detects -->\\n    <script src="\', escape=False)\nresponse.write(URL(\'static\',\'js/modernizr.custom.js\'))\nresponse.write(\'">\\n    </script>\\n    <!-- include stylesheets -->\\n    \', escape=False)\nresponse.files.insert(0,URL(\'static\',\'css/web2py.css\'))\nresponse.files.insert(1,URL(\'static\',\'bootstrap/css/bootstrap.css\'))\nresponse.files.insert(1,URL(\'static\',\'bootstrap/css/bootstrap-theme.css\'))\nresponse.files.insert(2,URL(\'static\',\'css/bootstrap-responsive.min.css\'))\nresponse.files.insert(3,URL(\'static\',\'css/web2py_bootstrap.css\'))\nresponse.files.insert(3,URL(\'static\',\'css/user.css\'))\nresponse.files.append(URL(request.application,\'static\',\'plugin_app/js/clock.js\'))\nresponse.write(\'\\n\\n  \', escape=False)\nresponse.write(\'<script type="text/javascript"><!--\\n    // These variables are used by the web2py_ajax_init function in web2py_ajax.js (which is loaded below).\\n    var w2p_ajax_confirm_message = "\', escape=False)\nresponse.write(T(\'Are you sure you want to delete this object?\'))\nresponse.write(\'";\\n    var w2p_ajax_disable_with_message = "\', escape=False)\nresponse.write(T(\'Working...\'))\nresponse.write(\'";\\n    var w2p_ajax_date_format = "\', escape=False)\nresponse.write(T(\'%Y-%m-%d\'))\nresponse.write(\'";\\n    var w2p_ajax_datetime_format = "\', escape=False)\nresponse.write(T(\'%Y-%m-%d %H:%M:%S\'))\nresponse.write(\'";\\n    var ajax_error_500 = \\\'\', escape=False)\nresponse.write(T.M(\'An error occured, please [[reload %s]] the page\') % URL(args=request.args, vars=request.get_vars))\nresponse.write("\'\\n    //--></script>\\n", escape=False)\nresponse.files.insert(0,URL(\'static\',\'js/jquery.js\'))\nresponse.files.insert(1,URL(\'static\',\'css/calendar.css\'))\nresponse.files.insert(2,URL(\'static\',\'js/calendar.js\'))\nresponse.files.insert(3,URL(\'static\',\'js/web2py.js\'))\nresponse.include_meta()\nresponse.include_files()\nresponse.write(\'\\n\', escape=False)\nresponse.write(\'\\n    <script src="\', escape=False)\nresponse.write(URL(\'static\',\'js/bootstrap.min.js\'))\nresponse.write(\'">\\n    </script>\\n    <script src="\', escape=False)\nresponse.write(URL(\'static\',\'js/web2py_bootstrap.js\'))\nresponse.write(\'">\\n    </script>\\n    <script src="\', escape=False)\nresponse.write(URL(\'static\',\'js/slidernews.js\'))\nresponse.write(\'">\\n    </script>\\n    <script src="\', escape=False)\nresponse.write(URL(\'static\',\'superfish/dist/js/hoverIntent.js\'))\nresponse.write(\'">\\n    </script>\\n    <script src="\', escape=False)\nresponse.write(URL(\'static\',\'superfish/dist/js/superfish.js\'))\nresponse.write(\'">\\n    </script>\\n\\t  <script src="\', escape=False)\nresponse.write(URL(\'static\',\'js/jquery.printElement.js\'))\nresponse.write(\'">\\n    </script>\\n    <link href="\', escape=False)\nresponse.write(URL(\'static\', \'superfish/dist/css/superfish.css\'))\nresponse.write(\'" rel="stylesheet" type="text/css"/>\\n    <noscript>\\n     <link href="\', escape=False)\nresponse.write(URL(\'static\', \'css/web2py_bootstrap_nojs.css\'))\nresponse.write(\'" rel="stylesheet" type="text/css"/>\\n    </noscript>\\n   </link>\\n  </link>\\n </head>\\n <meta name="viewport" content="width=device-width, initial-scale=1.0">\\n<link href="assets/css/bootstrap-responsive.css" rel="stylesheet">\\n\', escape=False)\nclass_style=\'\'\nresponse.write(\'\\n\', escape=False)\nif request.cookies.has_key(\'style_id_sgd\'):\n    response.write(\'\\n\\t\', escape=False)\n    class_style = request.cookies[\'style_id_sgd\'].value\n    response.write(\'\\n\', escape=False)\n    pass\nresponse.write(\'\\n\', escape=False)\nif request.cookies.has_key(\'style_layout\'):\n    response.write(\'\\n\\t\', escape=False)\n    class_style = class_style + \' \'+request.cookies[\'style_layout\'].value\n    response.write(\'\\n\', escape=False)\n    pass\nresponse.write(\'\\n <body class="\', escape=False)\nresponse.write(class_style)\nresponse.write(\'">\\n\\n <script>\\n$(document).ready(function(){\\n    $("#mau1").click(function(){\\n       \\n\\t\\t$( "body" ).removeClass( "mau3" )\\n\\t\\t$( "body" ).removeClass( "mau2" )\\n\\t\\t $("body").addClass("mau1");\\n\\t\\t\\n    });\\n\\t $("#mau2").click(function(){\\n\\t\\t$( "body" ).removeClass( "mau1" )\\n\\t\\t$( "body" ).removeClass( "mau3" )\\n        $("body").addClass("mau2");\\n    });\\n\\t\\n\\t $("#mau3").click(function(){\\n\\t\\t$( "body" ).removeClass( "mau1" )\\n\\t\\t$( "body" ).removeClass( "mau2" )\\n        $("body").addClass("mau3");\\n    });\\n\\t$("#layout-boxed").click(function(){\\n\\t\\t$( "body" ).removeClass( "layout-boxed" )\\n\\t\\t$( "body" ).removeClass( "layout-wide" )\\n        $("body").addClass("container");\\n        $("body").addClass("layout-boxed");\\n    });\\n\\t$("#layout-wide").click(function(){\\n\\t\\t$( "body" ).removeClass( "layout-boxed" )\\n\\t\\t$( "body" ).removeClass( "container" )\\n        \\n    });\\n\\t\\n});\\n</script>\\n  <div class="page-wrapper " id="container">\\n   <div class="flash">\', escape=False)\nresponse.write(response.flash or \'\')\nresponse.write(\'</div>\\n    \\n \\t<div class="row wr_top_ivinh">\\n\\t\\t<div class="top_ivinh" >\\n\\t\\t\\t<div id=\\\'content_top\\\'>\\n\\t\\t\\t\\t<div class="col-md-5 hidden-phone hidden-tablet ">\\n\\t\\t\\t\\t <p class=\\\'chao_mung\\\'> S\\xc3\\xa0n giao d\\xe1\\xbb\\x8bch th\\xc6\\xb0\\xc6\\xa1ng m\\xe1\\xba\\xa1i \\xc4\\x91i\\xe1\\xbb\\x87n t\\xe1\\xbb\\xad t\\xe1\\xbb\\x89nh H\\xc3\\xa0 T\\xc4\\xa9nh </p>\\n\\t\\t\\t\\t</div>\\n\\t\\t\\t\\t<div class="col-md-7 col-ms-12">\\n\\t\\t\\t\\t \', escape=False)\nresponse.write(cms.box("menu-top-page"))\nresponse.write(\'\\n\\t\\t\\t\\t</div>\\n\\t\\t\\t</div>\\n\\t    <div class=\\\'clearfix\\\'></div>\\n\\t\\t</div>\\n    </div>\\n    <div class="row wr_banner">\\n\\t\\t<div class="banner_ivinh background_all">\\n\\t\\t\\t<div class=\\\'container\\\'>\\n\\t\\t\\t<div class="col-md-12" id="wr_banner_top">\\n\\t\\t\\t\\t<div class="col-md-7" style="  text-align: center;">\\n\\t\\t\\t\\t\\t\', escape=False)\nresponse.write(cms.box("banner_top"))\nresponse.write(\'\\n\\t\\t\\t\\t</div>\\n\\t\\t\\t</div>\\n\\t\\t\\t \\n\\t\\t\\t</div>\\n\\t\\t</div>\\n    </div>\\n\\t\\n\\t<div class="row menu_ivinh">\\n\\t\\t<div class=\\\'container\\\'>\\n\\t\\t \', escape=False)\nresponse.write(cms.box("menu_main"))\nresponse.write(\'\\n\\t\\t</div>\\n    </div>\\n\\n\\t\\n\\t\\n\\t<div class="row main_ivinh" id="connectedSortable_id_2">\\n\\t\\t\', escape=False)\nresponse.write(\'\\n\\t<div class="row main_ivinh" id="connectedSortable_id_2">\\n\\t\\t\\n\\t\\t<div class=\\\'container dang_ky\\\'>\\n\\t\\t\\n\\t\\t\\t<div class="panel panel-default">\\n\\t\\t\\t\\t<div class="panel-heading"><h4> \\xc4\\x90\\xc4\\x83ng tin t\\xc3\\xacm mua</h4></div>\\n\\t\\t\\t\\t<div class="panel-body">\\n\\t\\t\\t\\t\\t\', escape=False)\nresponse.write(content)\nresponse.write(\'\\n\\t\\t\\t\\t\\t\\n\\t\\t\\t\\t</div>\\n\\t\\t\\t</div>\\n\\t\\t\\t \\n\\t\\t</div>\\n    </div>\\n\', escape=False)\nresponse.write(\'\\n   </div>\\n\\t<div class=\\\'clearfix\\\'>\\n\\t\\t<br/>\\n\\t\\t<br/>\\n\\t\\t<br/>\\n\\t</div>\\n    <div class="row background_all" id="bottom_ivinh">\\n    \\t<div class=\\\'container\\\'>\\n\\t\\t\\t\', escape=False)\nresponse.write(cms.box("bottom"))\nresponse.write(\'\\n\\t\\t</div>\\n    </div>\\n\\t\\n\\t\\n\\n\\t\\n\\t\\n  </div>\\n  <!-- end:#page-wrapper-->\\n </body>\\n</html>\\n\', escape=False)'
p7
sS'snapshot'
p8
(dp9
sS'traceback'
p10
S'Traceback (most recent call last):\n  File "C:\\www-sgd114\\gluon\\restricted.py", line 227, in restricted\n    exec ccode in environment\n  File "C:\\www-sgd114\\applications\\sgd\\views\\layout/home_dang_tin-tim-mua.html", line 92, in <module>\nNameError: name \'content\' is not defined\n'
p11
s.