(dp1
S'output'
p2
S"<type 'exceptions.AttributeError'> "
p3
sS'layer'
p4
S'C:\\www-sgd114\\applications\\sgd\\views\\layout/content.html'
p5
sS'code'
p6
S'response.write(\'\\n\', escape=False)\nresponse.write(\'<!--[if HTML5]><![endif]-->\\n<!DOCTYPE html>\\n<!-- paulirish.com/2008/conditional-stylesheets-vs-css-hacks-answer-neither/ -->\\n<!--[if lt IE 7]><html class="ie ie6 ie-lte9 ie-lte8 ie-lte7 no-js" lang="\', escape=False)\nresponse.write(T.accepted_language or \'en\')\nresponse.write(\'"> <![endif]-->\\n<!--[if IE 7]><html class="ie ie7 ie-lte9 ie-lte8 ie-lte7 no-js" lang="\', escape=False)\nresponse.write(T.accepted_language or \'en\')\nresponse.write(\'"> <![endif]-->\\n<!--[if IE 8]><html class="ie ie8 ie-lte9 ie-lte8 no-js" lang="\', escape=False)\nresponse.write(T.accepted_language or \'en\')\nresponse.write(\'"> <![endif]-->\\n<!--[if IE 9]><html class="ie9 ie-lte9 no-js" lang="\', escape=False)\nresponse.write(T.accepted_language or \'en\')\nresponse.write(\'"> <![endif]-->\\n<!--[if (gt IE 9)|!(IE)]><!-->\\n<html class="no-js" lang="\', escape=False)\nresponse.write(T.accepted_language or \'en\')\nresponse.write(\'">\\n <!--<![endif]-->\\n <head>\\n \', escape=False)\nresponse.write(cms.metadc())\nresponse.write(\'\\n  <!--[if !HTML5]>\\n      <meta http-equiv="X-UA-Compatible" content="IE=edge\', escape=False)\nresponse.write(not request.is_local and \',chrome=1\' or \'\')\nresponse.write(\'">\\n  <![endif]-->\\n  <!-- www.phpied.com/conditional-comments-block-downloads/ -->\\n  <!-- Always force latest IE rendering engine\\n       (even in intranet) & Chrome Frame\\n       Remove this if you use the .htaccess -->\\n  <meta charset="utf-8"/>\\n  <!-- http://dev.w3.org/html5/markup/meta.name.html -->\\n  <meta content="\', escape=False)\nresponse.write(request.application)\nresponse.write(\'" name="application-name"/>\\n  <!-- Speaking of Google, don\\\'t forget to set your site up:\\n       http://google.com/webmasters -->\\n  <meta content="" name="google-site-verification"/>\\n  <!--  Mobile Viewport Fix\\n        j.mp/mobileviewport & davidbcalhoun.com/2010/viewport-metatag\\n        device-width: Occupy full width of the screen in its current orientation\\n        initial-scale = 1.0 retains dimensions instead of zooming out if page height > device height\\n        user-scalable = yes allows the user to zoom in -->\\n  <meta content="width=device-width, initial-scale=1.0" name="viewport"/>\\n  <link href="\', escape=False)\nresponse.write(URL(\'static\',\'ivinh_icon.ico\'))\nresponse.write(\'" rel="shortcut icon" type="image/x-icon">\\n   <link href="\', escape=False)\nresponse.write(URL(\'static\',\'ivinh_icon.ico\'))\nresponse.write(\'" rel="apple-touch-icon">\\n    <!-- All JavaScript at the bottom, except for Modernizr which enables\\n       HTML5 elements & feature detects -->\\n    <script src="\', escape=False)\nresponse.write(URL(\'static\',\'js/modernizr.custom.js\'))\nresponse.write(\'">\\n    </script>\\n    <!-- include stylesheets -->\\n    \', escape=False)\nresponse.files.insert(0,URL(\'static\',\'css/web2py.css\'))\nresponse.files.insert(1,URL(\'static\',\'bootstrap/css/bootstrap.css\'))\nresponse.files.insert(1,URL(\'static\',\'bootstrap/css/bootstrap-theme.css\'))\nresponse.files.insert(2,URL(\'static\',\'css/bootstrap-responsive.min.css\'))\nresponse.files.insert(3,URL(\'static\',\'css/web2py_bootstrap.css\'))\nresponse.files.insert(3,URL(\'static\',\'css/gian_hang_ivinh.css\'))\nresponse.files.insert(3,URL(\'static\',\'css/tool_admin.css\'))\nresponse.files.append(URL(request.application,\'static\',\'plugin_app/js/clock.js\'))\nresponse.write(\'\\n\\n  \', escape=False)\nresponse.write(\'<script type="text/javascript"><!--\\n    // These variables are used by the web2py_ajax_init function in web2py_ajax.js (which is loaded below).\\n    var w2p_ajax_confirm_message = "\', escape=False)\nresponse.write(T(\'Are you sure you want to delete this object?\'))\nresponse.write(\'";\\n    var w2p_ajax_disable_with_message = "\', escape=False)\nresponse.write(T(\'Working...\'))\nresponse.write(\'";\\n    var w2p_ajax_date_format = "\', escape=False)\nresponse.write(T(\'%Y-%m-%d\'))\nresponse.write(\'";\\n    var w2p_ajax_datetime_format = "\', escape=False)\nresponse.write(T(\'%Y-%m-%d %H:%M:%S\'))\nresponse.write(\'";\\n    var ajax_error_500 = \\\'\', escape=False)\nresponse.write(T.M(\'An error occured, please [[reload %s]] the page\') % URL(args=request.args, vars=request.get_vars))\nresponse.write("\'\\n    //--></script>\\n", escape=False)\nresponse.files.insert(0,URL(\'static\',\'js/jquery.js\'))\nresponse.files.insert(1,URL(\'static\',\'css/calendar.css\'))\nresponse.files.insert(2,URL(\'static\',\'js/calendar.js\'))\nresponse.files.insert(3,URL(\'static\',\'js/web2py.js\'))\nresponse.include_meta()\nresponse.include_files()\nresponse.write(\'\\n\', escape=False)\nresponse.write(\'\\n    <script src="\', escape=False)\nresponse.write(URL(\'static\',\'js/bootstrap.min.js\'))\nresponse.write(\'">\\n    </script>\\n    <script src="\', escape=False)\nresponse.write(URL(\'static\',\'js/web2py_bootstrap.js\'))\nresponse.write(\'">\\n    </script>\\n    <script src="\', escape=False)\nresponse.write(URL(\'static\',\'js/slidernews.js\'))\nresponse.write(\'">\\n    </script>\\n    <script src="\', escape=False)\nresponse.write(URL(\'static\',\'superfish/dist/js/hoverIntent.js\'))\nresponse.write(\'">\\n    </script>\\n    <script src="\', escape=False)\nresponse.write(URL(\'static\',\'superfish/dist/js/superfish.js\'))\nresponse.write(\'">\\n    </script>\\n\\t  <script src="\', escape=False)\nresponse.write(URL(\'static\',\'js/jquery.printElement.js\'))\nresponse.write(\'">\\n    </script>\\n    <link href="\', escape=False)\nresponse.write(URL(\'static\', \'superfish/dist/css/superfish.css\'))\nresponse.write(\'" rel="stylesheet" type="text/css"/>\\n    <noscript>\\n     <link href="\', escape=False)\nresponse.write(URL(\'static\', \'css/web2py_bootstrap_nojs.css\'))\nresponse.write(\'" rel="stylesheet" type="text/css"/>\\n    </noscript>\\n   </link>\\n  </link>\\n <meta property="fb:app_id" content="{693454617454149}" />\\n </head>\\n <meta name="viewport" content="width=device-width, initial-scale=1.0">\\n<body id="gian_hang">\\n<div id="fb-root"></div>\\n<script>(function(d, s, id) {\\n  var js, fjs = d.getElementsByTagName(s)[0];\\n  if (d.getElementById(id)) return;\\n  js = d.createElement(s); js.id = id;\\n  js.src = "//connect.facebook.net/vi_VN/sdk.js#xfbml=1&version=v2.3&appId=693454617454149";\\n  fjs.parentNode.insertBefore(js, fjs);\\n}(document, \\\'script\\\', \\\'facebook-jssdk\\\'));</script>\\n\\n\\t\\n\', escape=False)\nrows = cms.get_content(tablename=\'cong_ty\',folder=request.args(0))\nresponse.write(\'\\n\', escape=False)\ncong_ty = \'\'\nresponse.write(\'\\n\', escape=False)\nif len(rows)>0:\n    response.write(\'\\n\', escape=False)\n    cong_ty = rows[0]\n    response.write(\'\\n\', escape=False)\n    pass\nresponse.write(\'\\n\', escape=False)\nfrom plugin_cms import CmsFolder\nfolder_id_ivinh=CmsFolder().get_folder(request.args(0))\nresponse.write(\'\\n\\t\\n\\t\', escape=False)\nif auth.has_permission(\'quan_tri_gian_hang\', \'folder\', folder_id_ivinh):\n    response.write(\'\\n\\t<div class="row wr_top_ivinh">\\n\\t\\t<div class="top_ivinh">\\n\\t\\t\\t<div class=\\\'container\\\'>\\n\\t\\t\\t\\t<div class="col-md-6 hidden-phone hidden-tablet ">\\n\\t\\t\\t\\t</div>\\n\\t\\t\\t\\t<div class="col-md-6 col-ms-12">\\n\\t\\t\\t\\t \', escape=False)\n    response.write(cms.box("gian-hang-menu-top"))\n    response.write("\\n\\t\\t\\t\\t</div>\\n\\t\\t\\t</div>\\n\\t\\t<div class=\'clearfix\'></div>\\n\\t\\t</div>\\n\\t</div>\\n\\t", escape=False)\n    pass\nresponse.write(\'\\n  <div class="page-wrapper " id="container">\\n   <div class="flash">\', escape=False)\nresponse.write(response.flash or \'\')\nresponse.write(\'</div>\\n   \\n\\n\\t\\n<!--     <div class="row banner_ivinh">\\n\\t\\t\', escape=False)\nif cong_ty:\n    response.write(\'\\n\\t\\t\\t\\t\', escape=False)\n    if cong_ty.banner_top:\n        response.write(\'\\n\\t\\t\\t\\t\\t\\t\', escape=False)\n        response.write(IMG(_src=cms.get_avatar(\'cong_ty\',cong_ty.banner_top),_id="logo_page"))\n        response.write(\'\\n\\t\\t\\t\\t\\t\', escape=False)\n        if cong_ty.employ_logo:\n            response.write("\\n\\t\\t\\t\\t\\t\\t<h2 id=\'site_name\'>", escape=False)\n            response.write(cong_ty.name)\n            response.write(\' </h2>\\n\\t\\t\\t\\t\\t\', escape=False)\n            pass\n        response.write(\'\\n\\t\\t\\t\\t\', escape=False)\n    else:\n        response.write(\'\\n\\t\\t\\t\\t\\t<div class="col-md-12">\\n\\t\\t\\t\\t\\t\\t<h2 id=\\\'title_page_site\\\'> \', escape=False)\n        response.write(cms.folder_name(request.args(0)))\n        response.write(\'</h2>\\n\\t\\t\\t\\t\\t</div>\\n\\t\\t\\t\\t\', escape=False)\n        pass\n    response.write(\'\\n\\t\\t\', escape=False)\nelse:\n    response.write(\'\\n\\t\\t\\t<div class="col-md-12">\\n\\t\\t\\t</div>\\n\\t\\t\', escape=False)\n    pass\nresponse.write(\'\\n\\t\\t\\n    </div> -->\\n\\n\\t\\n\\t<div class="row menu_ivinh menu_page_ivinh">\\n\\t\\t<div class=\\\'container\\\'>\\n\\t\\t\\t<div class="col-md-12">\\n\\t\\t\\t\\t\\t\', escape=False)\nresponse.write(IMG(_src=cms.get_avatar(\'cong_ty\',cong_ty.avatar),_id="logo_page",_style=\'width:150px;float: left; padding:10px 0;\'))\nresponse.write(\'\\n\\t\\t\\t\\t\\n\\t\\t\\t\\t\\t\', escape=False)\nresponse.write(cms.box("ivinh_menu_gian_hang"))\nresponse.write(\'\\n\\t\\t\\t</div>\\n\\t\\t</div>\\n    </div>\\n\\t\', escape=False)\nresponse.write(cms.box("ivinh_slideshow"))\nresponse.write(\'\\n\\t<br/>\\n\\t<br/>\\n\\t<div class="row main_ivinh" id="connectedSortable_id_2">\\n\\t\\t<div class=\\\'container\\\'>\\n\\t\\t\\t<!-- <div class="col-md-3 hidden-tablet hidden-phone left_ivinh">\\n\\t\\t\\t\\t\\n\\t\\t\\t\\t\', escape=False)\nresponse.write(cms.box("gian_hang_box_gio_hang"))\nresponse.write(\'\\n\\t\\t\\t\\t\', escape=False)\nif cong_ty:\n    response.write(\'\\n\\t\\t\\t\\t\\t\', escape=False)\n    if cong_ty.linh_vuc:\n        response.write(\'\\n\\t\\t\\t\\t\\t\', escape=False)\n        folder = cms.define_folder()\n        response.write(\'\\n\\t\\t\\t\\t\\t\\t<div class="ivinhcmsbox" id="gian_hang_menu_left">\\t \\n\\t\\t\\t\\t\\t\\t\\t<div id="menu_left" class="background_all">\\n\\t\\t\\t\\t\\t\\t\\t<h2 class="box_title"> L\\xc4\\xa9nh v\\xe1\\xbb\\xb1c</h2>\\n\\t\\t\\t\\t\\t\\t\\t\\t<div class="box_content">\\n\\t\\t\\t\\t\\t\\t\\t\\t\\t<div id="box_content">\\n\\t\\t\\t\\t\\t\\t\\t\\t\\t\\t<ul class="sf-menu sf-js-enabled sf-arrows">\\n\\t\\t\\t\\t\\t\\t\\t\\t\\t\\t\\n\\t\\t\\t\\t\\t\\t\\t\\t\\t\\t\', escape=False)\n        for folder_id in cong_ty.linh_vuc:\n            response.write(\'\\n\\t\\t\\t\\t\\t\\t\\t\\t\\t\\t\\t\', escape=False)\n            response.write(LI(A(folder[folder_id].label,_href=URL(c=\'portal\',f=\'folder\',args=[request.args(0),folder[folder_id].name],vars=dict(page=\'san_pham\')))))\n            response.write(\'\\n\\t\\t\\t\\t\\t\\t\\t\\t\\t\\t\', escape=False)\n            pass\n        response.write(\'\\n\\t\\t\\t\\t\\t\\t\\t\\t\\t\\t\\n\\t\\t\\t\\t\\t\\t\\t\\t\\t\\t</ul>\\n\\t\\t\\t\\t\\t\\t\\t\\t\\t</div>\\n\\t\\t\\t\\t\\t\\t\\t\\t</div>\\n\\t\\t\\t\\t\\t\\t\\t</div>\\n\\t\\t\\t\\t\\t\\t</div>\\n\\t\\t\\t\\t\\t\', escape=False)\n        pass\n    response.write(\'\\n\\t\\t\\t\\t\\t\', escape=False)\n    if cong_ty.quang_cao:\n        response.write(\'\\n\\t\\t\\t\\t\\t\\t<div id="gian_hang_quang_cao">\\t \\n\\t\\t\\t\\t\\t\\t\\t\\t<div class="box_content">\\n\\t\\t\\t\\t\\t\\t\\t\\t\\t<div id="box_content">\\n\\t\\t\\t\\t\\t\\t\\t\\t\\t\\t\', escape=False)\n        response.write(XML(cong_ty.quang_cao))\n        response.write(\'\\n\\t\\t\\t\\t\\t\\t\\t\\t\\t</div>\\n\\t\\t\\t\\t\\t\\t\\t\\t</div>\\n\\t\\t\\t\\t\\t\\t</div>\\n\\n\\t\\t\\t\\t\\t\', escape=False)\n        pass\n    response.write(\'\\n\\t\\t\\t\\t\', escape=False)\n    pass\nresponse.write(\'\\n\\t\\t\\t\\t\\n\\t\\t\\t\\t\', escape=False)\nresponse.write(cms.box("gian_hang_san_pham_top_read"))\nresponse.write(\'\\n\\t\\t\\t</div>\\n\\t\\t\\t --> <div class="col-md-12 content_ivinh">\\n\\t\\t\\t\\t<div id="content_ivinh">\\n\\t\\t\\t\\t\\t\', escape=False)\nif request.function ==\'folder\':\n    response.write(\'\\n\\t\\t\\t\\t\\t\\t\\n\\t\\t\\t\\t\\t\\t\', escape=False)\n    if request.vars.page ==\'gioi_thieu\':\n        response.write(\'\\n\\t\\t\\t\\t\\t\\t\\t\', escape=False)\n        response.write(cms.box("page_gian_hang"))\n        response.write(\'\\n\\t\\t\\t\\t\\t\\t\', escape=False)\n    elif request.vars.page ==\'quang_cao\':\n        response.write(\'\\n\\t\\t\\t\\t\\t\\t\\t\', escape=False)\n        response.write(cms.box("page_gian_hang"))\n        response.write(\'\\n\\t\\t\\t\\t\\t\\t\', escape=False)\n    elif request.vars.page ==\'tuyen_dung\':\n        response.write(\'\\n\\t\\t\\t\\t\\t\\t\\t\', escape=False)\n        response.write(cms.box("page_gian_hang"))\n        response.write(\'\\n\\t\\t\\t\\t\\t\\t\\t<!-- <div id="list_news">\\n\\t\\t\\t\\t\\t\\t\\t\\t<h2 id="title_page"><span class=\\\'title_name\\\'>Gi\\xe1\\xbb\\x9bi thi\\xe1\\xbb\\x87u</span></h2>\\n\\t\\t\\t\\t\\t\\t\\t\\t<div class="content_list_news">\\n\\t\\t\\t\\t\\t\\t\\t\\t\\t<br/>\\n\\t\\t\\t\\t\\t\\t\\t\\t\\t\', escape=False)\n        if cong_ty:\n            response.write(\'\\n\\t\\t\\t\\t\\t\\t\\t\\t\\t\\t\', escape=False)\n            response.write(XML(cong_ty.htmlcontent))\n            response.write(\'\\n\\t\\t\\t\\t\\t\\t\\t\\t\\t\', escape=False)\n            pass\n        response.write(\'\\n\\t\\t\\t\\t\\t\\t\\t\\t</div>\\n\\t\\t\\t\\t\\t\\t\\t</div> -->\\n\\t\\t\\t\\t\\t\\t\', escape=False)\n    elif  request.vars.page ==\'san_pham\':\n        response.write(\'\\n\\t\\t\\t\\t\\t\\t\\t\\n\\t\\t\\t\\t\\t\\t\\t\\t\\t\', escape=False)\n        response.write(cms.box("gian_hang_list_products"))\n        response.write(\'\\n\\t\\t\\t\\t\\t\\t\', escape=False)\n    elif  request.vars.page ==\'tin_tuc\':\n        response.write(\'\\n\\t\\t\\t\\t\\t\\t\\t\', escape=False)\n        response.write(cms.box("gian_hang_list_news"))\n        response.write(\' \\n\\t\\t\\t\\t\\t\\t\', escape=False)\n    elif  request.vars.page ==\'quan-ly-gian-hang\':\n        response.write(\'\\n\\t\\t\\t\\t\\t\\t\\t\', escape=False)\n        response.write(cms.box("quan-ly-gian-hang"))\n        response.write(\'\\t\\n\\n\\t\\t\\t\\t\\t\\t\', escape=False)\n    elif  request.vars.page ==\'thong_tin_cong_ty\':\n        response.write(\'\\n\\t\\t\\t\\t\\t\\t\\t\', escape=False)\n        response.write(cms.box("quan-ly-gian-hang"))\n        response.write(\'\\n\\t\\t\\t\\t\\t\\t\\t\', escape=False)\n        response.write(cms.box("edit_cong_ty"))\n        response.write(\' \\n\\t\\t\\t\\t\\t\\t\', escape=False)\n    elif  request.vars.page ==\'mng_san_pham\':\n        response.write(\'\\n\\t\\t\\t\\t\\t\\t\\t\', escape=False)\n        response.write(cms.box("quan-ly-gian-hang"))\n        response.write(\'\\n\\t\\t\\t\\t\\t\\t\\t\', escape=False)\n        response.write(cms.box("mng_san_pham"))\n        response.write(\' \\n\\t\\t\\t\\t\\t\\t\', escape=False)\n    elif  request.vars.page ==\'mng_tin_tuc\':\n        response.write(\'\\n\\t\\t\\t\\t\\t\\t\\t\', escape=False)\n        response.write(cms.box("quan-ly-gian-hang"))\n        response.write(\'\\n\\t\\t\\t\\t\\t\\t\\t\', escape=False)\n        response.write(cms.box("mng_tin_tuc"))\n        response.write(\' \\n\\t\\t\\t\\t\\t\\t\', escape=False)\n    elif request.vars.page ==\'bao_cao\':\n        response.write(\'\\n\\t\\t\\t\\t\\t\\t\\t\', escape=False)\n        response.write(cms.box("quan-ly-gian-hang"))\n        response.write(\'\\n\\t\\t\\t\\t\\t\\t\\t\', escape=False)\n        response.write(cms.box("gian_hang_bao_cao"))\n        response.write(\' \\t\\n\\t\\t\\t\\t\\t\\t\', escape=False)\n    elif  request.vars.page ==\'don_hang\':\n        response.write(\'\\n\\t\\t\\t\\t\\t\\t\\t\', escape=False)\n        response.write(cms.box("gian_hang_don_hang"))\n        response.write(\' \\n\\t\\t\\t\\t\\t\\t\\n\\t\\t\\t\\t\\t\\t\\t\\n\\t\\t\\t\\t\\t\\t\', escape=False)\n    elif  request.vars.page ==\'lien_he\':\n        response.write(\'\\n\\t\\t\\t\\t\\t\\t<div id="list_news">\\n\\t\\t\\t\\t\\t\\t\\t<h2 id="title_page"><span class=\\\'title_name\\\'>Th\\xc3\\xb4ng tin li\\xc3\\xaan h\\xe1\\xbb\\x87</span></h2>\\n\\t\\t\\t\\t\\t\\t\\t<div class="content_list_news">\\n\\t\\t\\t\\t\\t\\t\\t\\t<br/>\\n\\t\\t\\t\\t\\t\\t\\t\\t\\t\', escape=False)\n        if cong_ty:\n            response.write(\'\\n\\t\\t\\t\\t\\t\\t\\t\\t\\t\\t<h2 style="text-align:center; font-size:24px; text-transform:uppercase; margin:10px;"> \\t\', escape=False)\n            response.write(cong_ty.name)\n            response.write(\'</h2>\\n\\t\\t\\t\\t\\t\\t\\t\\t\\t   <h4 style="text-align:center; font-size:14px; text-transform:uppercase; margin:10px;"> \\t\', escape=False)\n            response.write(cong_ty.dia_chi)\n            response.write(\'</h4>\\n\\t\\t\\t\\t\\t\\t\\t\\t\\t   <h4 style="text-align:center; font-size:14px;  margin:10px;"> \\tNg\\xc6\\xb0\\xe1\\xbb\\x9di \\xc4\\x91\\xe1\\xba\\xa1i di\\xe1\\xbb\\x87n:<b>\', escape=False)\n            response.write(cong_ty.nguoi_dai_dien)\n            response.write(\' </b>   &nbsp;&nbsp; \\xc4\\x90i\\xe1\\xbb\\x87n tho\\xe1\\xba\\xa1i li\\xc3\\xaan h\\xe1\\xbb\\x87:<b>\', escape=False)\n            response.write(cong_ty.phone)\n            response.write(\' </b> </h4>\\n\\t\\t\\t\\t\\t\\t\\t\\t\\t   <div class="text-center">\\n\\t\\t\\t\\t\\t\\t\\t\\t\\t\\t\\t\', escape=False)\n            if cong_ty.is_maps:\n                response.write(\'\\n\\t\\t\\t\\t\\t\\t\\t\\t\\t\\t\\t\\t\', escape=False)\n                response.write(XML(cong_ty.is_maps))\n                response.write(\'\\n\\t\\t\\t\\t\\t\\t\\t\\t\\t\\t\\t\', escape=False)\n                pass\n            response.write(\'\\n\\t\\t\\t\\t\\t\\t\\t\\t\\t\\t</div>\\n\\t\\t\\t\\t\\t\\t\\t\\t\\t\', escape=False)\n            pass\n        response.write(\'\\n\\t\\t\\t\\t\\t\\t\\t</div>\\n\\t\\t\\t\\t\\t\\t</div>\\n\\t\\t\\t\\t\\t\\t\', escape=False)\n    elif  request.vars.page ==\'checkout\':\n        response.write(\'\\n\\t\\t\\t\\t\\t\\t<div id="order_view">\\n\\t\\t\\t\\t\\t\\t\\t<h2 id="title_page"><span class=\\\'title_name\\\'>Th\\xc3\\xb4ng tin \\xc4\\x91\\xe1\\xba\\xb7t h\\xc3\\xa0ng</span></h2>\\n\\t\\t\\t\\t\\t\\t\\t<div class="content_list_news">\\n\\t\\t\\t\\t\\t\\t\\t\\t<br/>\\n\\t\\t\\t\\t\\t\\t\\t\\t<div id="box_gio_hang">\\n\\t\\t\\t\\t\\t\\t\\t\\t\\t\', escape=False)\n        response.write(LOAD(c=\'plugin_app\',f=\'view_order\',args=request.args,vars=request.vars,ajax=False))\n        response.write(\'\\n\\t\\t\\t\\t\\t\\t\\t\\t</div>\\n\\t\\t\\t\\t\\t\\t\\t</div>\\n\\t\\t\\t\\t\\t\\t</div>\\n\\t\\t\\t\\t\\t\\t\\t\\n\\t\\t\\t\\t\\t\\t\', escape=False)\n    else:\n        response.write(\'\\n\\t\\t\\t\\t\\t\\t\\t\', escape=False)\n        response.write(cms.box("ivinh_list_product"))\n        response.write(\'\\n\\t\\t\\t\\t\\t\\t\\t\', escape=False)\n        response.write(cms.box("gian_hang_list_news"))\n        response.write(\' \\n\\t\\t\\t\\t\\t\\t\\t\\n\\t\\t\\t\\t\\t\\t\', escape=False)\n        pass\n    response.write(\'\\n\\t\\t\\t\\t\\t\', escape=False)\n    pass\nresponse.write(\'\\n\\t\\t\\t\\t\\t\\n\\t\\t\\t\\t\\t\', escape=False)\nresponse.write(\'\\n\', escape=False)\nresponse.write(cms.box(\'news_detail\',tablename=request.args(1)))\nresponse.write(\'\\n\\n\\t\\t   \', escape=False)\nresponse.write(\'\\n\\t\\t\\t\\t</div>\\n\\t\\t\\t </div>\\n\\t\\t</div>\\n    </div>\\n\\t<div class="clearfix"><br/></div>\\n    <div class="row background_all" id="bottom_ivinh">\\n    \\t<div class=\\\'container\\\'>\\n\\t\\t\\t<BR/>\\n\\t\\t\\t\', escape=False)\nif cong_ty:\n    response.write(\'\\n\\t\\t\\t\\t<h2 style="text-align:center; font-size:18px; text-transform:uppercase; margin:10px;"> \\t\', escape=False)\n    response.write(cong_ty.name)\n    response.write(\'</h2>\\n\\t\\t\\t\\t<h4 style="text-align:center; font-size:14px; text-transform:uppercase; margin:10px;"> \\t\', escape=False)\n    response.write(cong_ty.dia_chi)\n    response.write(\'</h2>\\n\\t\\t\\t\', escape=False)\n    pass\nresponse.write(\'\\n\\t\\t\\t\\t<br/>\\n\\t\\t</div>\\n\\t\\t\\n\\t\\t\\t\\t\\t\\t\\t\\n    </div>\\n\\t\\n  </div>\\n  <!-- end:#page-wrapper-->\\n  <!-- Go to www.addthis.com/dashboard to customize your tools -->\\n<script type="text/javascript" src="//s7.addthis.com/js/300/addthis_widget.js#pubid=ra-55386abf77636216" async="async"></script>\\n\\n </body>\\n</html>\\n\', escape=False)'
p7
sS'snapshot'
p8
(dp9
sS'traceback'
p10
S'Traceback (most recent call last):\n  File "C:\\www-sgd114\\gluon\\restricted.py", line 227, in restricted\n    exec ccode in environment\n  File "C:\\www-sgd114\\applications\\sgd\\views\\layout/content.html", line 239, in <module>\n  File "applications\\sgd\\modules\\plugin_cms.py", line 573, in box\n    context[\'row\'] = self.get_row(tablename,link)\n  File "applications\\sgd\\modules\\plugin_cms.py", line 537, in get_row\n    return self.db(self.db[tablename].link==link).select().first()\n  File "C:\\www-sgd114\\gluon\\packages\\dal\\pydal\\base.py", line 899, in __getitem__\n    return self.__getattr__(str(key))\n  File "C:\\www-sgd114\\gluon\\packages\\dal\\pydal\\base.py", line 906, in __getattr__\n    return super(DAL, self).__getattr__(key)\n  File "C:\\www-sgd114\\gluon\\packages\\dal\\pydal\\helpers\\classes.py", line 30, in __getattr__\n    raise AttributeError\nAttributeError\n'
p11
s.